target datalayout = "e-m:e-p270:32:32-p271:32:32-p272:64:64-i64:64-i128:128-f80:128-n8:16:32:64-S128"
target triple = "x86_64-pc-linux-gnu"

%struct.ImVec2 = type { float, float }
%struct.ImRect = type { %struct.ImVec2, %struct.ImVec2 }
%struct.ImGuiTextBuffer = type { %struct.ImVector.34 }
%struct.ImVector.34 = type { i32, i32, ptr }
%struct.ImGuiTabBar = type { ptr, %struct.ImVector.43, i32, i32, i32, i32, i32, i32, i32, %struct.ImRect, float, float, float, float, float, float, float, float, float, float, float, float, i32, i16, i8, i8, i8, i8, i16, i16, float, %struct.ImVec2, %struct.ImVec2, %struct.ImGuiTextBuffer }
%struct.ImVector.43 = type { i32, i32, ptr }
%struct.ImGuiTabItem = type <{ i32, i32, i32, i32, float, float, float, float, i32, i16, i16, i8, [3 x i8] }>

@.str.107 = private unnamed_addr constant [4 x i8] c"N/A\00", align 1

; Function Attrs: mustprogress nounwind uwtable
define dso_local noundef ptr @_ZN5ImGui16TabBarGetTabNameEP11ImGuiTabBarP12ImGuiTabItem(ptr noundef %0, ptr noundef %1) #4 {
  %3 = alloca ptr, align 8
  %4 = alloca ptr, align 8
  %5 = alloca ptr, align 8
  store ptr %0, ptr %4, align 8, !tbaa !807
  store ptr %1, ptr %5, align 8, !tbaa !849
  %6 = load ptr, ptr %5, align 8, !tbaa !849
  %7 = getelementptr inbounds nuw %struct.ImGuiTabItem, ptr %6, i32 0, i32 8
  %8 = load i32, ptr %7, align 4, !tbaa !881
  %9 = icmp eq i32 %8, -1
  br i1 %9, label %10, label %11

10:                                               ; preds = %2
  store ptr @.str.107, ptr %3, align 8
  br label %22

11:                                               ; preds = %2
  %12 = load ptr, ptr %4, align 8, !tbaa !807
  %13 = getelementptr inbounds nuw %struct.ImGuiTabBar, ptr %12, i32 0, i32 33
  %14 = getelementptr inbounds nuw %struct.ImGuiTextBuffer, ptr %13, i32 0, i32 0
  %15 = getelementptr inbounds nuw %struct.ImVector.34, ptr %14, i32 0, i32 2
  %16 = load ptr, ptr %15, align 8, !tbaa !898
  %17 = load ptr, ptr %5, align 8, !tbaa !849
  %18 = getelementptr inbounds nuw %struct.ImGuiTabItem, ptr %17, i32 0, i32 8
  %19 = load i32, ptr %18, align 4, !tbaa !881
  %20 = sext i32 %19 to i64
  %21 = getelementptr inbounds i8, ptr %16, i64 %20
  store ptr %21, ptr %3, align 8
  br label %22

22:                                               ; preds = %11, %10
  %23 = load ptr, ptr %3, align 8
  ret ptr %23
}