; Function Attrs: mustprogress nofree norecurse nosync nounwind willreturn memory(argmem: read) uwtable
define dso_local noundef ptr @_ZN5ImGui16TabBarGetTabNameEP11ImGuiTabBarP12ImGuiTabItem(ptr noundef readonly captures(none) %0, ptr noundef readonly captures(none) %1) local_unnamed_addr #11 {
  %3 = getelementptr inbounds nuw i8, ptr %1, i64 32
  %4 = load i32, ptr %3, align 4, !tbaa !770
  %5 = icmp eq i32 %4, -1
  br i1 %5, label %11, label %6

6:                                                ; preds = %2
  %7 = getelementptr inbounds nuw i8, ptr %0, i64 160
  %8 = load ptr, ptr %7, align 8, !tbaa !771
  %9 = sext i32 %4 to i64
  %10 = getelementptr inbounds i8, ptr %8, i64 %9
  br label %11

11:                                               ; preds = %2, %6
  %.0 = phi ptr [ %10, %6 ], [ @.str.107, %2 ]
  ret ptr %.0
}